; Function Attrs: nounwind uwtable
define void @av_hmac_init(ptr noundef %0, ptr noundef %1, i32 noundef %2) local_unnamed_addr #0 {
  %4 = alloca [128 x i8], align 16
  call void @llvm.lifetime.start.p0(i64 128, ptr nonnull %4) #6
  %5 = getelementptr inbounds nuw i8, ptr %0, i64 8
  %6 = load i32, ptr %5, align 8, !tbaa !4
  %7 = icmp ugt i32 %2, %6
  br i1 %7, label %8, label %22

8:                                                ; preds = %3
  %9 = getelementptr inbounds nuw i8, ptr %0, i64 32
  %10 = load ptr, ptr %9, align 8, !tbaa !11
  %11 = load ptr, ptr %0, align 8, !tbaa !14
  tail call void %10(ptr noundef %11) #6
  %12 = getelementptr inbounds nuw i8, ptr %0, i64 24
  %13 = load ptr, ptr %12, align 8, !tbaa !12
  %14 = load ptr, ptr %0, align 8, !tbaa !14
  %15 = zext i32 %2 to i64
  tail call void %13(ptr noundef %14, ptr noundef %1, i64 noundef %15) #6
  %16 = getelementptr inbounds nuw i8, ptr %0, i64 16
  %17 = load ptr, ptr %16, align 8, !tbaa !13
  %18 = load ptr, ptr %0, align 8, !tbaa !14
  %19 = getelementptr inbounds nuw i8, ptr %0, i64 40
  tail call void %17(ptr noundef %18, ptr noundef nonnull %19) #6
  %20 = getelementptr inbounds nuw i8, ptr %0, i64 12
  %21 = load i32, ptr %20, align 4, !tbaa !10
  br label %25

22:                                               ; preds = %3
  %23 = getelementptr inbounds nuw i8, ptr %0, i64 40
  %24 = zext i32 %2 to i64
  tail call void @llvm.memcpy.p0.p0.i64(ptr nonnull align 8 %23, ptr align 1 %1, i64 %24, i1 false)
  br label %25

25:                                               ; preds = %22, %8
  %.sink = phi i32 [ %21, %8 ], [ %2, %22 ]
  %26 = getelementptr inbounds nuw i8, ptr %0, i64 168
  store i32 %.sink, ptr %26, align 8, !tbaa !15
  %27 = getelementptr inbounds nuw i8, ptr %0, i64 32
  %28 = load ptr, ptr %27, align 8, !tbaa !11
  %29 = load ptr, ptr %0, align 8, !tbaa !14
  tail call void %28(ptr noundef %29) #6
  %30 = load i32, ptr %26, align 8, !tbaa !15
  %31 = icmp sgt i32 %30, 0
  br i1 %31, label %.lr.ph, label %.preheader

.lr.ph:                                           ; preds = %25
  %32 = getelementptr inbounds nuw i8, ptr %0, i64 40
  %wide.trip.count = zext nneg i32 %30 to i64
  br label %40

.preheader:                                       ; preds = %40, %25
  %33 = load i32, ptr %5, align 8, !tbaa !4
  %34 = icmp slt i32 %30, %33
  br i1 %34, label %.lr.ph40.preheader, label %._crit_edge

.lr.ph40.preheader:                               ; preds = %.preheader
  %35 = sext i32 %30 to i64
  %scevgep = getelementptr i8, ptr %4, i64 %35
  %36 = xor i32 %30, -1
  %37 = add i32 %33, %36
  %38 = zext i32 %37 to i64
  %39 = add nuw nsw i64 %38, 1
  call void @llvm.memset.p0.i64(ptr noundef nonnull align 1 dereferenceable(1) %scevgep, i8 54, i64 %39, i1 false), !tbaa !16
  br label %._crit_edge

40:                                               ; preds = %.lr.ph, %40
  %indvars.iv = phi i64 [ 0, %.lr.ph ], [ %indvars.iv.next, %40 ]
  %41 = getelementptr inbounds nuw [128 x i8], ptr %32, i64 0, i64 %indvars.iv
  %42 = load i8, ptr %41, align 1, !tbaa !16
  %43 = xor i8 %42, 54
  %44 = getelementptr inbounds nuw [128 x i8], ptr %4, i64 0, i64 %indvars.iv
  store i8 %43, ptr %44, align 1, !tbaa !16
  %indvars.iv.next = add nuw nsw i64 %indvars.iv, 1
  %exitcond.not = icmp eq i64 %indvars.iv.next, %wide.trip.count
  br i1 %exitcond.not, label %.preheader, label %40, !llvm.loop !17

._crit_edge:                                      ; preds = %.lr.ph40.preheader, %.preheader
  %45 = getelementptr inbounds nuw i8, ptr %0, i64 24
  %46 = load ptr, ptr %45, align 8, !tbaa !12
  %47 = load ptr, ptr %0, align 8, !tbaa !14
  %48 = sext i32 %33 to i64
  call void %46(ptr noundef %47, ptr noundef nonnull %4, i64 noundef %48) #6
  call void @llvm.lifetime.end.p0(i64 128, ptr nonnull %4) #6
  ret void
}